; ModuleID = 'source-C-CXX/53/341.c'
source_filename = "source-C-CXX/53/341.c"
target datalayout = "e-m:e-p270:32:32-p271:32:32-p272:64:64-i64:64-f80:128-n8:16:32:64-S128"
target triple = "x86_64-pc-linux-gnu"

@.str = private unnamed_addr constant [5 x i8] c"%d%d\00", align 1
@.str.1 = private unnamed_addr constant [3 x i8] c"%d\00", align 1

; Function Attrs: nofree nounwind sspstrong uwtable
define dso_local void @main() local_unnamed_addr #0 {
  %1 = alloca i32, align 4
  %2 = alloca i32, align 4
  %3 = bitcast i32* %1 to i8*
  call void @llvm.lifetime.start.p0i8(i64 4, i8* nonnull %3) #3
  %4 = bitcast i32* %2 to i8*
  call void @llvm.lifetime.start.p0i8(i64 4, i8* nonnull %4) #3
  %5 = call i32 (i8*, ...) @__isoc99_scanf(i8* getelementptr inbounds ([5 x i8], [5 x i8]* @.str, i64 0, i64 0), i32* nonnull %1, i32* nonnull %2)
  %6 = load i32, i32* %1, align 4, !tbaa !5
  %7 = icmp sgt i32 %6, 0
  %8 = load i32, i32* %2, align 4
  %9 = add nsw i32 %6, -1
  br i1 %7, label %10, label %30

10:                                               ; preds = %0, %25
  %11 = phi i32 [ %29, %25 ], [ 1, %0 ]
  %12 = mul nsw i32 %6, %11
  %13 = add nsw i32 %8, %12
  %14 = srem i32 %13, %9
  %15 = icmp eq i32 %14, 0
  br i1 %15, label %16, label %25

16:                                               ; preds = %10, %16
  %17 = phi i32 [ %22, %16 ], [ %13, %10 ]
  %18 = phi i32 [ %20, %16 ], [ 1, %10 ]
  %19 = sdiv i32 %17, %9
  %20 = add nuw nsw i32 %18, 1
  %21 = mul nsw i32 %6, %19
  %22 = add nsw i32 %8, %21
  %23 = srem i32 %22, %9
  %24 = icmp eq i32 %23, 0
  br i1 %24, label %16, label %25

25:                                               ; preds = %16, %10
  %26 = phi i32 [ %11, %10 ], [ %19, %16 ]
  %27 = phi i32 [ 1, %10 ], [ %20, %16 ]
  %28 = icmp eq i32 %27, %6
  %29 = add nuw nsw i32 %11, 1
  br i1 %28, label %31, label %10

30:                                               ; preds = %0, %30
  br label %30

31:                                               ; preds = %25
  %32 = mul nsw i32 %6, %26
  %33 = add nsw i32 %8, %32
  %34 = call i32 (i8*, ...) @printf(i8* nonnull dereferenceable(1) getelementptr inbounds ([3 x i8], [3 x i8]* @.str.1, i64 0, i64 0), i32 %33)
  call void @llvm.lifetime.end.p0i8(i64 4, i8* nonnull %4) #3
  call void @llvm.lifetime.end.p0i8(i64 4, i8* nonnull %3) #3
  ret void
}

; Function Attrs: argmemonly mustprogress nofree nosync nounwind willreturn
declare void @llvm.lifetime.start.p0i8(i64 immarg, i8* nocapture) #1

; Function Attrs: nofree nounwind
declare noundef i32 @__isoc99_scanf(i8* nocapture noundef readonly, ...) local_unnamed_addr #2

; Function Attrs: nofree nounwind
declare noundef i32 @printf(i8* nocapture noundef readonly, ...) local_unnamed_addr #2

; Function Attrs: argmemonly mustprogress nofree nosync nounwind willreturn
declare void @llvm.lifetime.end.p0i8(i64 immarg, i8* nocapture) #1


!llvm.module.flags = !{!0, !1, !2, !3}
!llvm.ident = !{!4}

!0 = !{i32 1, !"wchar_size", i32 4}
!1 = !{i32 7, !"PIC Level", i32 2}
!2 = !{i32 7, !"PIE Level", i32 2}
!3 = !{i32 7, !"uwtable", i32 1}
!4 = !{!"clang version 13.0.0"}
!5 = !{!6, !6, i64 0}
!6 = !{!"int", !7, i64 0}
!7 = !{!"omnipotent char", !8, i64 0}
!8 = !{!"Simple C/C++ TBAA"}
